; ModuleID = '8/1210.c'
source_filename = "8/1210.c"
target datalayout = "e-m:e-p270:32:32-p271:32:32-p272:64:64-i64:64-f80:128-n8:16:32:64-S128"
target triple = "x86_64-pc-linux-gnu"

@.str = private unnamed_addr constant [6 x i8] c"%d %d\00", align 1
@.str.1 = private unnamed_addr constant [4 x i8] c"%d \00", align 1
@.str.2 = private unnamed_addr constant [3 x i8] c"%d\00", align 1

; Function Attrs: noinline nounwind uwtable
define dso_local i32 @main() #0 {
  %1 = alloca i32, align 4
  %2 = alloca i32, align 4
  %3 = alloca i32, align 4
  %4 = alloca [100 x i32], align 16
  %5 = alloca [100 x i32], align 16
  %6 = alloca i32, align 4
  %7 = alloca i32, align 4
  store i32 0, i32* %1, align 4
  %8 = call i32 (i8*, ...) @__isoc99_scanf(i8* getelementptr inbounds ([6 x i8], [6 x i8]* @.str, i64 0, i64 0), i32* %2, i32* %3)
  %9 = getelementptr inbounds [100 x i32], [100 x i32]* %4, i64 0, i64 0
  %10 = load i32, i32* %2, align 4
  call void @input(i32* %9, i32 %10)
  %11 = getelementptr inbounds [100 x i32], [100 x i32]* %5, i64 0, i64 0
  %12 = load i32, i32* %3, align 4
  call void @input(i32* %11, i32 %12)
  %13 = getelementptr inbounds [100 x i32], [100 x i32]* %4, i64 0, i64 0
  %14 = load i32, i32* %2, align 4
  call void @sort_ascending(i32* %13, i32 %14)
  %15 = getelementptr inbounds [100 x i32], [100 x i32]* %5, i64 0, i64 0
  %16 = load i32, i32* %3, align 4
  call void @sort_ascending(i32* %15, i32 %16)
  store i32 0, i32* %6, align 4
  br label %17

17:                                               ; preds = %27, %0
  %18 = load i32, i32* %6, align 4
  %19 = load i32, i32* %2, align 4
  %20 = icmp slt i32 %18, %19
  br i1 %20, label %21, label %30

21:                                               ; preds = %17
  %22 = load i32, i32* %6, align 4
  %23 = sext i32 %22 to i64
  %24 = getelementptr inbounds [100 x i32], [100 x i32]* %4, i64 0, i64 %23
  %25 = load i32, i32* %24, align 4
  %26 = call i32 (i8*, ...) @printf(i8* getelementptr inbounds ([4 x i8], [4 x i8]* @.str.1, i64 0, i64 0), i32 %25)
  br label %27

27:                                               ; preds = %21
  %28 = load i32, i32* %6, align 4
  %29 = add nsw i32 %28, 1
  store i32 %29, i32* %6, align 4
  br label %17

30:                                               ; preds = %17
  store i32 0, i32* %7, align 4
  br label %31

31:                                               ; preds = %42, %30
  %32 = load i32, i32* %7, align 4
  %33 = load i32, i32* %3, align 4
  %34 = sub nsw i32 %33, 1
  %35 = icmp slt i32 %32, %34
  br i1 %35, label %36, label %45

36:                                               ; preds = %31
  %37 = load i32, i32* %7, align 4
  %38 = sext i32 %37 to i64
  %39 = getelementptr inbounds [100 x i32], [100 x i32]* %5, i64 0, i64 %38
  %40 = load i32, i32* %39, align 4
  %41 = call i32 (i8*, ...) @printf(i8* getelementptr inbounds ([4 x i8], [4 x i8]* @.str.1, i64 0, i64 0), i32 %40)
  br label %42

42:                                               ; preds = %36
  %43 = load i32, i32* %7, align 4
  %44 = add nsw i32 %43, 1
  store i32 %44, i32* %7, align 4
  br label %31

45:                                               ; preds = %31
  %46 = load i32, i32* %3, align 4
  %47 = sub nsw i32 %46, 1
  %48 = sext i32 %47 to i64
  %49 = getelementptr inbounds [100 x i32], [100 x i32]* %5, i64 0, i64 %48
  %50 = load i32, i32* %49, align 4
  %51 = call i32 (i8*, ...) @printf(i8* getelementptr inbounds ([3 x i8], [3 x i8]* @.str.2, i64 0, i64 0), i32 %50)
  %52 = load i32, i32* %1, align 4
  ret i32 %52
}

declare dso_local i32 @__isoc99_scanf(i8*, ...) #1

; Function Attrs: noinline nounwind uwtable
define dso_local void @input(i32* %0, i32 %1) #0 {
  %3 = alloca i32*, align 8
  %4 = alloca i32, align 4
  %5 = alloca i32, align 4
  store i32* %0, i32** %3, align 8
  store i32 %1, i32* %4, align 4
  store i32 0, i32* %5, align 4
  br label %6

6:                                                ; preds = %16, %2
  %7 = load i32, i32* %5, align 4
  %8 = load i32, i32* %4, align 4
  %9 = icmp slt i32 %7, %8
  br i1 %9, label %10, label %19

10:                                               ; preds = %6
  %11 = load i32*, i32** %3, align 8
  %12 = load i32, i32* %5, align 4
  %13 = sext i32 %12 to i64
  %14 = getelementptr inbounds i32, i32* %11, i64 %13
  %15 = call i32 (i8*, ...) @__isoc99_scanf(i8* getelementptr inbounds ([3 x i8], [3 x i8]* @.str.2, i64 0, i64 0), i32* %14)
  br label %16

16:                                               ; preds = %10
  %17 = load i32, i32* %5, align 4
  %18 = add nsw i32 %17, 1
  store i32 %18, i32* %5, align 4
  br label %6

19:                                               ; preds = %6
  ret void
}

; Function Attrs: noinline nounwind uwtable
define dso_local void @sort_ascending(i32* %0, i32 %1) #0 {
  %3 = alloca i32*, align 8
  %4 = alloca i32, align 4
  %5 = alloca i32, align 4
  %6 = alloca i32, align 4
  %7 = alloca i32, align 4
  store i32* %0, i32** %3, align 8
  store i32 %1, i32* %4, align 4
  store i32 0, i32* %5, align 4
  br label %8

8:                                                ; preds = %60, %2
  %9 = load i32, i32* %5, align 4
  %10 = load i32, i32* %4, align 4
  %11 = icmp slt i32 %9, %10
  br i1 %11, label %12, label %63

12:                                               ; preds = %8
  store i32 0, i32* %6, align 4
  br label %13

13:                                               ; preds = %56, %12
  %14 = load i32, i32* %6, align 4
  %15 = load i32, i32* %4, align 4
  %16 = load i32, i32* %5, align 4
  %17 = sub nsw i32 %15, %16
  %18 = sub nsw i32 %17, 1
  %19 = icmp slt i32 %14, %18
  br i1 %19, label %20, label %59

20:                                               ; preds = %13
  %21 = load i32*, i32** %3, align 8
  %22 = load i32, i32* %6, align 4
  %23 = sext i32 %22 to i64
  %24 = getelementptr inbounds i32, i32* %21, i64 %23
  %25 = load i32, i32* %24, align 4
  %26 = load i32*, i32** %3, align 8
  %27 = load i32, i32* %6, align 4
  %28 = add nsw i32 %27, 1
  %29 = sext i32 %28 to i64
  %30 = getelementptr inbounds i32, i32* %26, i64 %29
  %31 = load i32, i32* %30, align 4
  %32 = icmp sgt i32 %25, %31
  br i1 %32, label %33, label %55

33:                                               ; preds = %20
  %34 = load i32*, i32** %3, align 8
  %35 = load i32, i32* %6, align 4
  %36 = sext i32 %35 to i64
  %37 = getelementptr inbounds i32, i32* %34, i64 %36
  %38 = load i32, i32* %37, align 4
  store i32 %38, i32* %7, align 4
  %39 = load i32*, i32** %3, align 8
  %40 = load i32, i32* %6, align 4
  %41 = add nsw i32 %40, 1
  %42 = sext i32 %41 to i64
  %43 = getelementptr inbounds i32, i32* %39, i64 %42
  %44 = load i32, i32* %43, align 4
  %45 = load i32*, i32** %3, align 8
  %46 = load i32, i32* %6, align 4
  %47 = sext i32 %46 to i64
  %48 = getelementptr inbounds i32, i32* %45, i64 %47
  store i32 %44, i32* %48, align 4
  %49 = load i32, i32* %7, align 4
  %50 = load i32*, i32** %3, align 8
  %51 = load i32, i32* %6, align 4
  %52 = add nsw i32 %51, 1
  %53 = sext i32 %52 to i64
  %54 = getelementptr inbounds i32, i32* %50, i64 %53
  store i32 %49, i32* %54, align 4
  br label %55

55:                                               ; preds = %33, %20
  br label %56

56:                                               ; preds = %55
  %57 = load i32, i32* %6, align 4
  %58 = add nsw i32 %57, 1
  store i32 %58, i32* %6, align 4
  br label %13

59:                                               ; preds = %13
  br label %60

60:                                               ; preds = %59
  %61 = load i32, i32* %5, align 4
  %62 = add nsw i32 %61, 1
  store i32 %62, i32* %5, align 4
  br label %8

63:                                               ; preds = %8
  ret void
}

declare dso_local i32 @printf(i8*, ...) #1


!llvm.module.flags = !{!0}
!llvm.ident = !{!1}

!0 = !{i32 1, !"wchar_size", i32 4}
!1 = !{!"clang version 10.0.0-4ubuntu1 "}
