; ModuleID = 'source-C-CXX/7/1210.c'
source_filename = "source-C-CXX/7/1210.c"
target datalayout = "e-m:e-p270:32:32-p271:32:32-p272:64:64-i64:64-f80:128-n8:16:32:64-S128"
target triple = "x86_64-pc-linux-gnu"

@.str = private unnamed_addr constant [6 x i8] c"%d %d\00", align 1
@.str.1 = private unnamed_addr constant [4 x i8] c"%d \00", align 1
@.str.2 = private unnamed_addr constant [3 x i8] c"%d\00", align 1

; Function Attrs: nofree nounwind sspstrong uwtable
define dso_local i32 @main() local_unnamed_addr #0 {
  %1 = alloca i32, align 4
  %2 = alloca i32, align 4
  %3 = alloca [100 x i32], align 16
  %4 = alloca [100 x i32], align 16
  %5 = bitcast i32* %1 to i8*
  call void @llvm.lifetime.start.p0i8(i64 4, i8* nonnull %5) #4
  %6 = bitcast i32* %2 to i8*
  call void @llvm.lifetime.start.p0i8(i64 4, i8* nonnull %6) #4
  %7 = bitcast [100 x i32]* %3 to i8*
  call void @llvm.lifetime.start.p0i8(i64 400, i8* nonnull %7) #4
  %8 = bitcast [100 x i32]* %4 to i8*
  call void @llvm.lifetime.start.p0i8(i64 400, i8* nonnull %8) #4
  %9 = call i32 (i8*, ...) @__isoc99_scanf(i8* getelementptr inbounds ([6 x i8], [6 x i8]* @.str, i64 0, i64 0), i32* nonnull %1, i32* nonnull %2)
  %10 = getelementptr inbounds [100 x i32], [100 x i32]* %3, i64 0, i64 0
  %11 = load i32, i32* %1, align 4, !tbaa !5
  %12 = icmp sgt i32 %11, 0
  br i1 %12, label %13, label %21

13:                                               ; preds = %0
  %14 = zext i32 %11 to i64
  br label %15

15:                                               ; preds = %15, %13
  %16 = phi i64 [ 0, %13 ], [ %19, %15 ]
  %17 = getelementptr inbounds [100 x i32], [100 x i32]* %3, i64 0, i64 %16
  %18 = call i32 (i8*, ...) @__isoc99_scanf(i8* getelementptr inbounds ([3 x i8], [3 x i8]* @.str.2, i64 0, i64 0), i32* nonnull %17) #4
  %19 = add nuw nsw i64 %16, 1
  %20 = icmp eq i64 %19, %14
  br i1 %20, label %21, label %15, !llvm.loop !9

21:                                               ; preds = %15, %0
  %22 = getelementptr inbounds [100 x i32], [100 x i32]* %4, i64 0, i64 0
  %23 = load i32, i32* %2, align 4, !tbaa !5
  %24 = icmp sgt i32 %23, 0
  br i1 %24, label %25, label %33

25:                                               ; preds = %21
  %26 = zext i32 %23 to i64
  br label %27

27:                                               ; preds = %27, %25
  %28 = phi i64 [ 0, %25 ], [ %31, %27 ]
  %29 = getelementptr inbounds [100 x i32], [100 x i32]* %4, i64 0, i64 %28
  %30 = call i32 (i8*, ...) @__isoc99_scanf(i8* getelementptr inbounds ([3 x i8], [3 x i8]* @.str.2, i64 0, i64 0), i32* nonnull %29) #4
  %31 = add nuw nsw i64 %28, 1
  %32 = icmp eq i64 %31, %26
  br i1 %32, label %33, label %27, !llvm.loop !9

33:                                               ; preds = %27, %21
  %34 = load i32, i32* %1, align 4, !tbaa !5
  %35 = icmp sgt i32 %34, 0
  br i1 %35, label %36, label %80

36:                                               ; preds = %33, %77
  %37 = phi i32 [ %78, %77 ], [ 0, %33 ]
  %38 = xor i32 %37, -1
  %39 = add i32 %34, %38
  %40 = zext i32 %39 to i64
  %41 = xor i32 %37, -1
  %42 = add i32 %34, %41
  %43 = icmp sgt i32 %42, 0
  br i1 %43, label %44, label %77

44:                                               ; preds = %36
  %45 = load i32, i32* %10, align 16, !tbaa !5
  %46 = and i64 %40, 1
  %47 = icmp eq i32 %39, 1
  br i1 %47, label %66, label %48

48:                                               ; preds = %44
  %49 = and i64 %40, 4294967294
  br label %50

50:                                               ; preds = %162, %48
  %51 = phi i32 [ %45, %48 ], [ %163, %162 ]
  %52 = phi i64 [ 0, %48 ], [ %62, %162 ]
  %53 = phi i64 [ %49, %48 ], [ %164, %162 ]
  %54 = or i64 %52, 1
  %55 = getelementptr inbounds [100 x i32], [100 x i32]* %3, i64 0, i64 %54
  %56 = load i32, i32* %55, align 4, !tbaa !5
  %57 = icmp sgt i32 %51, %56
  br i1 %57, label %58, label %60

58:                                               ; preds = %50
  %59 = getelementptr inbounds [100 x i32], [100 x i32]* %3, i64 0, i64 %52
  store i32 %56, i32* %59, align 8, !tbaa !5
  store i32 %51, i32* %55, align 4, !tbaa !5
  br label %60

60:                                               ; preds = %58, %50
  %61 = phi i32 [ %56, %50 ], [ %51, %58 ]
  %62 = add nuw nsw i64 %52, 2
  %63 = getelementptr inbounds [100 x i32], [100 x i32]* %3, i64 0, i64 %62
  %64 = load i32, i32* %63, align 8, !tbaa !5
  %65 = icmp sgt i32 %61, %64
  br i1 %65, label %160, label %162

66:                                               ; preds = %162, %44
  %67 = phi i32 [ %45, %44 ], [ %163, %162 ]
  %68 = phi i64 [ 0, %44 ], [ %62, %162 ]
  %69 = icmp eq i64 %46, 0
  br i1 %69, label %77, label %70

70:                                               ; preds = %66
  %71 = add nuw nsw i64 %68, 1
  %72 = getelementptr inbounds [100 x i32], [100 x i32]* %3, i64 0, i64 %71
  %73 = load i32, i32* %72, align 4, !tbaa !5
  %74 = icmp sgt i32 %67, %73
  br i1 %74, label %75, label %77

75:                                               ; preds = %70
  %76 = getelementptr inbounds [100 x i32], [100 x i32]* %3, i64 0, i64 %68
  store i32 %73, i32* %76, align 4, !tbaa !5
  store i32 %67, i32* %72, align 4, !tbaa !5
  br label %77

77:                                               ; preds = %66, %70, %75, %36
  %78 = add nuw nsw i32 %37, 1
  %79 = icmp eq i32 %78, %34
  br i1 %79, label %80, label %36, !llvm.loop !11

80:                                               ; preds = %77, %33
  %81 = load i32, i32* %2, align 4, !tbaa !5
  %82 = icmp sgt i32 %81, 0
  br i1 %82, label %83, label %127

83:                                               ; preds = %80, %124
  %84 = phi i32 [ %125, %124 ], [ 0, %80 ]
  %85 = xor i32 %84, -1
  %86 = add i32 %81, %85
  %87 = zext i32 %86 to i64
  %88 = xor i32 %84, -1
  %89 = add i32 %81, %88
  %90 = icmp sgt i32 %89, 0
  br i1 %90, label %91, label %124

91:                                               ; preds = %83
  %92 = load i32, i32* %22, align 16, !tbaa !5
  %93 = and i64 %87, 1
  %94 = icmp eq i32 %86, 1
  br i1 %94, label %113, label %95

95:                                               ; preds = %91
  %96 = and i64 %87, 4294967294
  br label %97

97:                                               ; preds = %168, %95
  %98 = phi i32 [ %92, %95 ], [ %169, %168 ]
  %99 = phi i64 [ 0, %95 ], [ %109, %168 ]
  %100 = phi i64 [ %96, %95 ], [ %170, %168 ]
  %101 = or i64 %99, 1
  %102 = getelementptr inbounds [100 x i32], [100 x i32]* %4, i64 0, i64 %101
  %103 = load i32, i32* %102, align 4, !tbaa !5
  %104 = icmp sgt i32 %98, %103
  br i1 %104, label %105, label %107

105:                                              ; preds = %97
  %106 = getelementptr inbounds [100 x i32], [100 x i32]* %4, i64 0, i64 %99
  store i32 %103, i32* %106, align 8, !tbaa !5
  store i32 %98, i32* %102, align 4, !tbaa !5
  br label %107

107:                                              ; preds = %105, %97
  %108 = phi i32 [ %103, %97 ], [ %98, %105 ]
  %109 = add nuw nsw i64 %99, 2
  %110 = getelementptr inbounds [100 x i32], [100 x i32]* %4, i64 0, i64 %109
  %111 = load i32, i32* %110, align 8, !tbaa !5
  %112 = icmp sgt i32 %108, %111
  br i1 %112, label %166, label %168

113:                                              ; preds = %168, %91
  %114 = phi i32 [ %92, %91 ], [ %169, %168 ]
  %115 = phi i64 [ 0, %91 ], [ %109, %168 ]
  %116 = icmp eq i64 %93, 0
  br i1 %116, label %124, label %117

117:                                              ; preds = %113
  %118 = add nuw nsw i64 %115, 1
  %119 = getelementptr inbounds [100 x i32], [100 x i32]* %4, i64 0, i64 %118
  %120 = load i32, i32* %119, align 4, !tbaa !5
  %121 = icmp sgt i32 %114, %120
  br i1 %121, label %122, label %124

122:                                              ; preds = %117
  %123 = getelementptr inbounds [100 x i32], [100 x i32]* %4, i64 0, i64 %115
  store i32 %120, i32* %123, align 4, !tbaa !5
  store i32 %114, i32* %119, align 4, !tbaa !5
  br label %124

124:                                              ; preds = %113, %117, %122, %83
  %125 = add nuw nsw i32 %84, 1
  %126 = icmp eq i32 %125, %81
  br i1 %126, label %127, label %83, !llvm.loop !11

127:                                              ; preds = %124, %80
  br i1 %35, label %136, label %130

128:                                              ; preds = %136
  %129 = load i32, i32* %2, align 4, !tbaa !5
  br label %130

130:                                              ; preds = %128, %127
  %131 = phi i32 [ %129, %128 ], [ %81, %127 ]
  %132 = icmp sgt i32 %131, 1
  br i1 %132, label %145, label %133

133:                                              ; preds = %130
  %134 = add nsw i32 %131, -1
  %135 = sext i32 %134 to i64
  br label %155

136:                                              ; preds = %127, %136
  %137 = phi i64 [ %141, %136 ], [ 0, %127 ]
  %138 = getelementptr inbounds [100 x i32], [100 x i32]* %3, i64 0, i64 %137
  %139 = load i32, i32* %138, align 4, !tbaa !5
  %140 = call i32 (i8*, ...) @printf(i8* nonnull dereferenceable(1) getelementptr inbounds ([4 x i8], [4 x i8]* @.str.1, i64 0, i64 0), i32 %139)
  %141 = add nuw nsw i64 %137, 1
  %142 = load i32, i32* %1, align 4, !tbaa !5
  %143 = sext i32 %142 to i64
  %144 = icmp slt i64 %141, %143
  br i1 %144, label %136, label %128, !llvm.loop !12

145:                                              ; preds = %130, %145
  %146 = phi i64 [ %150, %145 ], [ 0, %130 ]
  %147 = getelementptr inbounds [100 x i32], [100 x i32]* %4, i64 0, i64 %146
  %148 = load i32, i32* %147, align 4, !tbaa !5
  %149 = call i32 (i8*, ...) @printf(i8* nonnull dereferenceable(1) getelementptr inbounds ([4 x i8], [4 x i8]* @.str.1, i64 0, i64 0), i32 %148)
  %150 = add nuw nsw i64 %146, 1
  %151 = load i32, i32* %2, align 4, !tbaa !5
  %152 = add nsw i32 %151, -1
  %153 = sext i32 %152 to i64
  %154 = icmp slt i64 %150, %153
  br i1 %154, label %145, label %155, !llvm.loop !13

155:                                              ; preds = %145, %133
  %156 = phi i64 [ %135, %133 ], [ %153, %145 ]
  %157 = getelementptr inbounds [100 x i32], [100 x i32]* %4, i64 0, i64 %156
  %158 = load i32, i32* %157, align 4, !tbaa !5
  %159 = call i32 (i8*, ...) @printf(i8* nonnull dereferenceable(1) getelementptr inbounds ([3 x i8], [3 x i8]* @.str.2, i64 0, i64 0), i32 %158)
  call void @llvm.lifetime.end.p0i8(i64 400, i8* nonnull %8) #4
  call void @llvm.lifetime.end.p0i8(i64 400, i8* nonnull %7) #4
  call void @llvm.lifetime.end.p0i8(i64 4, i8* nonnull %6) #4
  call void @llvm.lifetime.end.p0i8(i64 4, i8* nonnull %5) #4
  ret i32 0

160:                                              ; preds = %60
  %161 = getelementptr inbounds [100 x i32], [100 x i32]* %3, i64 0, i64 %54
  store i32 %64, i32* %161, align 4, !tbaa !5
  store i32 %61, i32* %63, align 8, !tbaa !5
  br label %162

162:                                              ; preds = %160, %60
  %163 = phi i32 [ %64, %60 ], [ %61, %160 ]
  %164 = add i64 %53, -2
  %165 = icmp eq i64 %164, 0
  br i1 %165, label %66, label %50, !llvm.loop !14

166:                                              ; preds = %107
  %167 = getelementptr inbounds [100 x i32], [100 x i32]* %4, i64 0, i64 %101
  store i32 %111, i32* %167, align 4, !tbaa !5
  store i32 %108, i32* %110, align 8, !tbaa !5
  br label %168

168:                                              ; preds = %166, %107
  %169 = phi i32 [ %111, %107 ], [ %108, %166 ]
  %170 = add i64 %100, -2
  %171 = icmp eq i64 %170, 0
  br i1 %171, label %113, label %97, !llvm.loop !14
}

; Function Attrs: argmemonly mustprogress nofree nosync nounwind willreturn
declare void @llvm.lifetime.start.p0i8(i64 immarg, i8* nocapture) #1

; Function Attrs: nofree nounwind
declare noundef i32 @__isoc99_scanf(i8* nocapture noundef readonly, ...) local_unnamed_addr #2

; Function Attrs: nofree nounwind sspstrong uwtable
define dso_local void @input(i32* %0, i32 %1) local_unnamed_addr #0 {
  %3 = icmp sgt i32 %1, 0
  br i1 %3, label %4, label %12

4:                                                ; preds = %2
  %5 = zext i32 %1 to i64
  br label %6

6:                                                ; preds = %4, %6
  %7 = phi i64 [ 0, %4 ], [ %10, %6 ]
  %8 = getelementptr inbounds i32, i32* %0, i64 %7
  %9 = tail call i32 (i8*, ...) @__isoc99_scanf(i8* getelementptr inbounds ([3 x i8], [3 x i8]* @.str.2, i64 0, i64 0), i32* %8)
  %10 = add nuw nsw i64 %7, 1
  %11 = icmp eq i64 %10, %5
  br i1 %11, label %12, label %6, !llvm.loop !9

12:                                               ; preds = %6, %2
  ret void
}

; Function Attrs: nofree norecurse nosync nounwind sspstrong uwtable
define dso_local void @sort_ascending(i32* nocapture %0, i32 %1) local_unnamed_addr #3 {
  %3 = icmp sgt i32 %1, 0
  br i1 %3, label %4, label %48

4:                                                ; preds = %2, %45
  %5 = phi i32 [ %46, %45 ], [ 0, %2 ]
  %6 = xor i32 %5, -1
  %7 = add i32 %6, %1
  %8 = zext i32 %7 to i64
  %9 = xor i32 %5, -1
  %10 = add i32 %9, %1
  %11 = icmp sgt i32 %10, 0
  br i1 %11, label %12, label %45

12:                                               ; preds = %4
  %13 = load i32, i32* %0, align 4, !tbaa !5
  %14 = and i64 %8, 1
  %15 = icmp eq i32 %7, 1
  br i1 %15, label %34, label %16

16:                                               ; preds = %12
  %17 = and i64 %8, 4294967294
  br label %18

18:                                               ; preds = %51, %16
  %19 = phi i32 [ %13, %16 ], [ %52, %51 ]
  %20 = phi i64 [ 0, %16 ], [ %30, %51 ]
  %21 = phi i64 [ %17, %16 ], [ %53, %51 ]
  %22 = or i64 %20, 1
  %23 = getelementptr inbounds i32, i32* %0, i64 %22
  %24 = load i32, i32* %23, align 4, !tbaa !5
  %25 = icmp sgt i32 %19, %24
  br i1 %25, label %26, label %28

26:                                               ; preds = %18
  %27 = getelementptr inbounds i32, i32* %0, i64 %20
  store i32 %24, i32* %27, align 4, !tbaa !5
  store i32 %19, i32* %23, align 4, !tbaa !5
  br label %28

28:                                               ; preds = %18, %26
  %29 = phi i32 [ %24, %18 ], [ %19, %26 ]
  %30 = add nuw nsw i64 %20, 2
  %31 = getelementptr inbounds i32, i32* %0, i64 %30
  %32 = load i32, i32* %31, align 4, !tbaa !5
  %33 = icmp sgt i32 %29, %32
  br i1 %33, label %49, label %51

34:                                               ; preds = %51, %12
  %35 = phi i32 [ %13, %12 ], [ %52, %51 ]
  %36 = phi i64 [ 0, %12 ], [ %30, %51 ]
  %37 = icmp eq i64 %14, 0
  br i1 %37, label %45, label %38

38:                                               ; preds = %34
  %39 = add nuw nsw i64 %36, 1
  %40 = getelementptr inbounds i32, i32* %0, i64 %39
  %41 = load i32, i32* %40, align 4, !tbaa !5
  %42 = icmp sgt i32 %35, %41
  br i1 %42, label %43, label %45

43:                                               ; preds = %38
  %44 = getelementptr inbounds i32, i32* %0, i64 %36
  store i32 %41, i32* %44, align 4, !tbaa !5
  store i32 %35, i32* %40, align 4, !tbaa !5
  br label %45

45:                                               ; preds = %34, %38, %43, %4
  %46 = add nuw nsw i32 %5, 1
  %47 = icmp eq i32 %46, %1
  br i1 %47, label %48, label %4, !llvm.loop !11

48:                                               ; preds = %45, %2
  ret void

49:                                               ; preds = %28
  %50 = getelementptr inbounds i32, i32* %0, i64 %22
  store i32 %32, i32* %50, align 4, !tbaa !5
  store i32 %29, i32* %31, align 4, !tbaa !5
  br label %51

51:                                               ; preds = %49, %28
  %52 = phi i32 [ %32, %28 ], [ %29, %49 ]
  %53 = add i64 %21, -2
  %54 = icmp eq i64 %53, 0
  br i1 %54, label %34, label %18, !llvm.loop !14
}

; Function Attrs: nofree nounwind
declare noundef i32 @printf(i8* nocapture noundef readonly, ...) local_unnamed_addr #2

; Function Attrs: argmemonly mustprogress nofree nosync nounwind willreturn
declare void @llvm.lifetime.end.p0i8(i64 immarg, i8* nocapture) #1


!llvm.module.flags = !{!0, !1, !2, !3}
!llvm.ident = !{!4}

!0 = !{i32 1, !"wchar_size", i32 4}
!1 = !{i32 7, !"PIC Level", i32 2}
!2 = !{i32 7, !"PIE Level", i32 2}
!3 = !{i32 7, !"uwtable", i32 1}
!4 = !{!"clang version 13.0.0"}
!5 = !{!6, !6, i64 0}
!6 = !{!"int", !7, i64 0}
!7 = !{!"omnipotent char", !8, i64 0}
!8 = !{!"Simple C/C++ TBAA"}
!9 = distinct !{!9, !10}
!10 = !{!"llvm.loop.mustprogress"}
!11 = distinct !{!11, !10}
!12 = distinct !{!12, !10}
!13 = distinct !{!13, !10}
!14 = distinct !{!14, !10}
